; Function Attrs: nounwind uwtable
define dso_local i64 @tr2tls_region_elasped_self(i64 noundef %0) local_unnamed_addr #0 {
  %2 = load i32, ptr @tr2tls_key, align 4, !tbaa !18
  %3 = tail call ptr @pthread_getspecific(i32 noundef %2) #11
  %.not.i = icmp eq ptr %3, null
  br i1 %.not.i, label %4, label %tr2tls_get_self.exit

4:                                                ; preds = %1
  %5 = tail call i64 @getnanotime() #11
  %6 = udiv i64 %5, 1000
  %7 = tail call ptr @tr2tls_create_self(ptr noundef nonnull @.str.1, i64 noundef %6)
  br label %tr2tls_get_self.exit

tr2tls_get_self.exit:                             ; preds = %1, %4
  %.0.i = phi ptr [ %3, %1 ], [ %7, %4 ]
  %8 = getelementptr inbounds nuw i8, ptr %.0.i, i64 24
  %9 = load i64, ptr %8, align 8, !tbaa !17
  %.not = icmp eq i64 %9, 0
  br i1 %.not, label %17, label %10

10:                                               ; preds = %tr2tls_get_self.exit
  %11 = getelementptr inbounds nuw i8, ptr %.0.i, i64 8
  %12 = load ptr, ptr %11, align 8, !tbaa !16
  %13 = getelementptr i64, ptr %12, i64 %9
  %14 = getelementptr i8, ptr %13, i64 -8
  %15 = load i64, ptr %14, align 8, !tbaa !4
  %16 = sub i64 %0, %15
  br label %17

17:                                               ; preds = %tr2tls_get_self.exit, %10
  %.0 = phi i64 [ %16, %10 ], [ 0, %tr2tls_get_self.exit ]
  ret i64 %.0
}